ARM GAS  C:\Users\rolf\AppData\Local\Temp\cclwtvUu.s 			page 1


   1              		.syntax unified
   2              		.cpu cortex-m4
   3              		.eabi_attribute 27, 1
   4              		.fpu fpv4-sp-d16
   5              		.eabi_attribute 20, 1
   6              		.eabi_attribute 21, 1
   7              		.eabi_attribute 23, 3
   8              		.eabi_attribute 24, 1
   9              		.eabi_attribute 25, 1
  10              		.eabi_attribute 26, 1
  11              		.eabi_attribute 30, 1
  12              		.eabi_attribute 34, 1
  13              		.eabi_attribute 18, 4
  14              		.thumb
  15              		.syntax unified
  16              		.file	"cy_ble_custom.c"
  17              		.text
  18              	.Ltext0:
  19              		.cfi_sections	.debug_frame
  20              		.section	.text.Cy_BLE_CUSTOM_EventHandler,"ax",%progbits
  21              		.align	2
  22              		.thumb
  23              		.thumb_func
  24              		.type	Cy_BLE_CUSTOM_EventHandler, %function
  25              	Cy_BLE_CUSTOM_EventHandler:
  26              	.LFB256:
  27              		.file 1 "Generated_Source\\PSoC6\\pdl\\middleware\\ble\\cy_ble_custom.c"
   1:Generated_Source\PSoC6\pdl\middleware\ble/cy_ble_custom.c **** /***************************************************************************//**
   2:Generated_Source\PSoC6\pdl\middleware\ble/cy_ble_custom.c **** * \file cy_ble_custom.c
   3:Generated_Source\PSoC6\pdl\middleware\ble/cy_ble_custom.c **** * \version 2.70
   4:Generated_Source\PSoC6\pdl\middleware\ble/cy_ble_custom.c **** *
   5:Generated_Source\PSoC6\pdl\middleware\ble/cy_ble_custom.c **** * \brief
   6:Generated_Source\PSoC6\pdl\middleware\ble/cy_ble_custom.c **** *  Contains the source code for the Custom Service.
   7:Generated_Source\PSoC6\pdl\middleware\ble/cy_ble_custom.c **** *
   8:Generated_Source\PSoC6\pdl\middleware\ble/cy_ble_custom.c **** ********************************************************************************
   9:Generated_Source\PSoC6\pdl\middleware\ble/cy_ble_custom.c **** * \copyright
  10:Generated_Source\PSoC6\pdl\middleware\ble/cy_ble_custom.c **** * Copyright 2017-2021, Cypress Semiconductor Corporation.  All rights reserved.
  11:Generated_Source\PSoC6\pdl\middleware\ble/cy_ble_custom.c **** * You may use this file only in accordance with the license, terms, conditions,
  12:Generated_Source\PSoC6\pdl\middleware\ble/cy_ble_custom.c **** * disclaimers, and limitations in the end user license agreement accompanying
  13:Generated_Source\PSoC6\pdl\middleware\ble/cy_ble_custom.c **** * the software package with which this file was provided.
  14:Generated_Source\PSoC6\pdl\middleware\ble/cy_ble_custom.c **** *******************************************************************************/
  15:Generated_Source\PSoC6\pdl\middleware\ble/cy_ble_custom.c **** 
  16:Generated_Source\PSoC6\pdl\middleware\ble/cy_ble_custom.c **** 
  17:Generated_Source\PSoC6\pdl\middleware\ble/cy_ble_custom.c **** #include "cy_ble_event_handler.h"
  18:Generated_Source\PSoC6\pdl\middleware\ble/cy_ble_custom.c **** 
  19:Generated_Source\PSoC6\pdl\middleware\ble/cy_ble_custom.c **** /* C binding of definitions if building with C++ compiler */
  20:Generated_Source\PSoC6\pdl\middleware\ble/cy_ble_custom.c **** #ifdef __cplusplus
  21:Generated_Source\PSoC6\pdl\middleware\ble/cy_ble_custom.c **** extern "C" {
  22:Generated_Source\PSoC6\pdl\middleware\ble/cy_ble_custom.c **** #endif /* __cplusplus */
  23:Generated_Source\PSoC6\pdl\middleware\ble/cy_ble_custom.c **** 
  24:Generated_Source\PSoC6\pdl\middleware\ble/cy_ble_custom.c **** #if (CY_BLE_MODE_PROFILE && defined(CY_BLE_CUSTOM))
  25:Generated_Source\PSoC6\pdl\middleware\ble/cy_ble_custom.c **** 
  26:Generated_Source\PSoC6\pdl\middleware\ble/cy_ble_custom.c **** /* The pointer to the global BLE CUSTOM Config structure */
  27:Generated_Source\PSoC6\pdl\middleware\ble/cy_ble_custom.c **** cy_stc_ble_custom_config_t *cy_ble_customConfigPtr = NULL;
  28:Generated_Source\PSoC6\pdl\middleware\ble/cy_ble_custom.c **** 
  29:Generated_Source\PSoC6\pdl\middleware\ble/cy_ble_custom.c **** /***************************************
  30:Generated_Source\PSoC6\pdl\middleware\ble/cy_ble_custom.c **** * Private Function Prototypes
ARM GAS  C:\Users\rolf\AppData\Local\Temp\cclwtvUu.s 			page 2


  31:Generated_Source\PSoC6\pdl\middleware\ble/cy_ble_custom.c **** ***************************************/
  32:Generated_Source\PSoC6\pdl\middleware\ble/cy_ble_custom.c **** #ifdef CY_BLE_CUSTOM_CLIENT
  33:Generated_Source\PSoC6\pdl\middleware\ble/cy_ble_custom.c **** static void Cy_BLE_CUSTOMC_DiscoverServiceEventHandler(const cy_stc_ble_disc_srv_info_t *discServIn
  34:Generated_Source\PSoC6\pdl\middleware\ble/cy_ble_custom.c **** static void Cy_BLE_CUSTOMC_DiscoverCharacteristicsEventHandler(const cy_stc_ble_disc_char_info_t *d
  35:Generated_Source\PSoC6\pdl\middleware\ble/cy_ble_custom.c **** static void Cy_BLE_CUSTOMC_DiscoverCharDescriptorsEventHandler(const cy_stc_ble_disc_descr_info_t *
  36:Generated_Source\PSoC6\pdl\middleware\ble/cy_ble_custom.c **** static void Cy_BLE_CUSTOMC_GetCharRange(cy_stc_ble_disc_range_info_t *charRangeInfo);
  37:Generated_Source\PSoC6\pdl\middleware\ble/cy_ble_custom.c **** #endif /* (CY_BLE_CUSTOM_CLIENT) */
  38:Generated_Source\PSoC6\pdl\middleware\ble/cy_ble_custom.c **** static cy_en_ble_gatt_err_code_t Cy_BLE_CUSTOM_EventHandler(uint32_t eventCode, void *eventParam);
  39:Generated_Source\PSoC6\pdl\middleware\ble/cy_ble_custom.c **** 
  40:Generated_Source\PSoC6\pdl\middleware\ble/cy_ble_custom.c **** 
  41:Generated_Source\PSoC6\pdl\middleware\ble/cy_ble_custom.c **** /******************************************************************************
  42:Generated_Source\PSoC6\pdl\middleware\ble/cy_ble_custom.c **** * Function Name: Cy_BLE_CUSTOM_Init
  43:Generated_Source\PSoC6\pdl\middleware\ble/cy_ble_custom.c **** ***************************************************************************//**
  44:Generated_Source\PSoC6\pdl\middleware\ble/cy_ble_custom.c **** *
  45:Generated_Source\PSoC6\pdl\middleware\ble/cy_ble_custom.c **** *  This function initializes a Custom Service.
  46:Generated_Source\PSoC6\pdl\middleware\ble/cy_ble_custom.c **** *
  47:Generated_Source\PSoC6\pdl\middleware\ble/cy_ble_custom.c **** *  \param config: The configuration structure for the Custom Service.
  48:Generated_Source\PSoC6\pdl\middleware\ble/cy_ble_custom.c **** *
  49:Generated_Source\PSoC6\pdl\middleware\ble/cy_ble_custom.c **** *  \return
  50:Generated_Source\PSoC6\pdl\middleware\ble/cy_ble_custom.c **** *  \ref cy_en_ble_api_result_t : The return value indicates if the function succeeded or
  51:Generated_Source\PSoC6\pdl\middleware\ble/cy_ble_custom.c **** *  failed. The following are possible error codes.
  52:Generated_Source\PSoC6\pdl\middleware\ble/cy_ble_custom.c **** *
  53:Generated_Source\PSoC6\pdl\middleware\ble/cy_ble_custom.c **** *   Error Codes                             | Description
  54:Generated_Source\PSoC6\pdl\middleware\ble/cy_ble_custom.c **** *   ------------                            | -----------
  55:Generated_Source\PSoC6\pdl\middleware\ble/cy_ble_custom.c **** *   CY_BLE_SUCCESS                          | The function completed successfully.
  56:Generated_Source\PSoC6\pdl\middleware\ble/cy_ble_custom.c **** *   CY_BLE_ERROR_INVALID_PARAMETER          | On specifying NULL as input parameter
  57:Generated_Source\PSoC6\pdl\middleware\ble/cy_ble_custom.c **** *   CY_BLE_ERROR_MEMORY_ALLOCATION_FAILED   | Buffer overflow in the registration callback.
  58:Generated_Source\PSoC6\pdl\middleware\ble/cy_ble_custom.c **** *
  59:Generated_Source\PSoC6\pdl\middleware\ble/cy_ble_custom.c **** ******************************************************************************/
  60:Generated_Source\PSoC6\pdl\middleware\ble/cy_ble_custom.c **** cy_en_ble_api_result_t Cy_BLE_CUSTOM_Init(cy_stc_ble_custom_config_t *config)
  61:Generated_Source\PSoC6\pdl\middleware\ble/cy_ble_custom.c **** {
  62:Generated_Source\PSoC6\pdl\middleware\ble/cy_ble_custom.c ****     cy_en_ble_api_result_t apiResult;
  63:Generated_Source\PSoC6\pdl\middleware\ble/cy_ble_custom.c **** 
  64:Generated_Source\PSoC6\pdl\middleware\ble/cy_ble_custom.c ****     if(config == NULL)
  65:Generated_Source\PSoC6\pdl\middleware\ble/cy_ble_custom.c ****     {
  66:Generated_Source\PSoC6\pdl\middleware\ble/cy_ble_custom.c ****         apiResult = CY_BLE_ERROR_INVALID_PARAMETER;
  67:Generated_Source\PSoC6\pdl\middleware\ble/cy_ble_custom.c ****     }
  68:Generated_Source\PSoC6\pdl\middleware\ble/cy_ble_custom.c ****     else
  69:Generated_Source\PSoC6\pdl\middleware\ble/cy_ble_custom.c ****     {
  70:Generated_Source\PSoC6\pdl\middleware\ble/cy_ble_custom.c ****         /* Register the pointer to the config structure */
  71:Generated_Source\PSoC6\pdl\middleware\ble/cy_ble_custom.c ****         cy_ble_customConfigPtr = config;
  72:Generated_Source\PSoC6\pdl\middleware\ble/cy_ble_custom.c **** 
  73:Generated_Source\PSoC6\pdl\middleware\ble/cy_ble_custom.c ****         /* Register an Event Handler for the Custom Service */
  74:Generated_Source\PSoC6\pdl\middleware\ble/cy_ble_custom.c ****         apiResult = Cy_BLE_RegisterServiceEventHandler(&Cy_BLE_CUSTOM_EventHandler);
  75:Generated_Source\PSoC6\pdl\middleware\ble/cy_ble_custom.c **** 
  76:Generated_Source\PSoC6\pdl\middleware\ble/cy_ble_custom.c ****     #ifdef CY_BLE_CUSTOM_CLIENT
  77:Generated_Source\PSoC6\pdl\middleware\ble/cy_ble_custom.c ****         {
  78:Generated_Source\PSoC6\pdl\middleware\ble/cy_ble_custom.c ****             uint32_t discIdx;
  79:Generated_Source\PSoC6\pdl\middleware\ble/cy_ble_custom.c ****             uint32_t locServIdx;
  80:Generated_Source\PSoC6\pdl\middleware\ble/cy_ble_custom.c ****             uint32_t locCharIdx;
  81:Generated_Source\PSoC6\pdl\middleware\ble/cy_ble_custom.c ****             uint32_t locDescIdx;
  82:Generated_Source\PSoC6\pdl\middleware\ble/cy_ble_custom.c ****             for(discIdx = 0u; discIdx < CY_BLE_GATTC_COUNT; discIdx++)
  83:Generated_Source\PSoC6\pdl\middleware\ble/cy_ble_custom.c ****             {
  84:Generated_Source\PSoC6\pdl\middleware\ble/cy_ble_custom.c ****                 for(locServIdx = 0u; locServIdx < CY_BLE_CUSTOMC_SERVICE_COUNT; locServIdx++)
  85:Generated_Source\PSoC6\pdl\middleware\ble/cy_ble_custom.c ****                 {
  86:Generated_Source\PSoC6\pdl\middleware\ble/cy_ble_custom.c ****                     if(cy_ble_serverInfo[discIdx][CY_BLE_SRVI_CUSTOMS + locServIdx].range.startHand
  87:Generated_Source\PSoC6\pdl\middleware\ble/cy_ble_custom.c ****                        CY_BLE_GATT_INVALID_ATTR_HANDLE_VALUE)
ARM GAS  C:\Users\rolf\AppData\Local\Temp\cclwtvUu.s 			page 3


  88:Generated_Source\PSoC6\pdl\middleware\ble/cy_ble_custom.c ****                     {
  89:Generated_Source\PSoC6\pdl\middleware\ble/cy_ble_custom.c ****                         for(locCharIdx = 0u; locCharIdx < cy_ble_customConfigPtr->customc[locServId
  90:Generated_Source\PSoC6\pdl\middleware\ble/cy_ble_custom.c ****                             locCharIdx++)
  91:Generated_Source\PSoC6\pdl\middleware\ble/cy_ble_custom.c ****                         {
  92:Generated_Source\PSoC6\pdl\middleware\ble/cy_ble_custom.c ****                             cy_ble_customConfigPtr->customc[locServIdx].customServChar[locCharIdx].
  93:Generated_Source\PSoC6\pdl\middleware\ble/cy_ble_custom.c ****                              customServCharHandle[discIdx] = 0u;
  94:Generated_Source\PSoC6\pdl\middleware\ble/cy_ble_custom.c **** 
  95:Generated_Source\PSoC6\pdl\middleware\ble/cy_ble_custom.c ****                             for(locDescIdx = 0u; locDescIdx < cy_ble_customConfigPtr->customc[locSe
  96:Generated_Source\PSoC6\pdl\middleware\ble/cy_ble_custom.c ****                                  customServChar[locCharIdx].descCount; locDescIdx++)
  97:Generated_Source\PSoC6\pdl\middleware\ble/cy_ble_custom.c ****                             {
  98:Generated_Source\PSoC6\pdl\middleware\ble/cy_ble_custom.c ****                                 cy_ble_customConfigPtr->customc[locServIdx].customServChar[locCharI
  99:Generated_Source\PSoC6\pdl\middleware\ble/cy_ble_custom.c ****                                  customServCharDesc[locDescIdx].descHandle[discIdx] = 0u;
 100:Generated_Source\PSoC6\pdl\middleware\ble/cy_ble_custom.c ****                             }
 101:Generated_Source\PSoC6\pdl\middleware\ble/cy_ble_custom.c **** 
 102:Generated_Source\PSoC6\pdl\middleware\ble/cy_ble_custom.c ****                             /* Initialize uuid  */
 103:Generated_Source\PSoC6\pdl\middleware\ble/cy_ble_custom.c ****                             cy_ble_serverInfo[discIdx][CY_BLE_SRVI_CUSTOMS + locServIdx].uuid = 0x0
 104:Generated_Source\PSoC6\pdl\middleware\ble/cy_ble_custom.c ****                         }
 105:Generated_Source\PSoC6\pdl\middleware\ble/cy_ble_custom.c ****                     }
 106:Generated_Source\PSoC6\pdl\middleware\ble/cy_ble_custom.c **** 
 107:Generated_Source\PSoC6\pdl\middleware\ble/cy_ble_custom.c ****                     /* Initialize uuid  */
 108:Generated_Source\PSoC6\pdl\middleware\ble/cy_ble_custom.c ****                     if(cy_ble_customConfigPtr->customc[locServIdx].uuidFormat == 1u)
 109:Generated_Source\PSoC6\pdl\middleware\ble/cy_ble_custom.c ****                     {
 110:Generated_Source\PSoC6\pdl\middleware\ble/cy_ble_custom.c ****                         cy_ble_serverInfo[discIdx][CY_BLE_SRVI_CUSTOMS + locServIdx].uuid =
 111:Generated_Source\PSoC6\pdl\middleware\ble/cy_ble_custom.c ****                         * (uint16 *)cy_ble_customConfigPtr->customc[locServIdx].uuid;
 112:Generated_Source\PSoC6\pdl\middleware\ble/cy_ble_custom.c ****                     }
 113:Generated_Source\PSoC6\pdl\middleware\ble/cy_ble_custom.c ****                     else
 114:Generated_Source\PSoC6\pdl\middleware\ble/cy_ble_custom.c ****                     {
 115:Generated_Source\PSoC6\pdl\middleware\ble/cy_ble_custom.c ****                         cy_ble_serverInfo[discIdx][CY_BLE_SRVI_CUSTOMS + locServIdx].uuid = 0x0000u
 116:Generated_Source\PSoC6\pdl\middleware\ble/cy_ble_custom.c ****                     }
 117:Generated_Source\PSoC6\pdl\middleware\ble/cy_ble_custom.c ****                 }
 118:Generated_Source\PSoC6\pdl\middleware\ble/cy_ble_custom.c ****             }
 119:Generated_Source\PSoC6\pdl\middleware\ble/cy_ble_custom.c ****         }
 120:Generated_Source\PSoC6\pdl\middleware\ble/cy_ble_custom.c ****     #endif /* (CY_BLE_CUSTOM_CLIENT) */
 121:Generated_Source\PSoC6\pdl\middleware\ble/cy_ble_custom.c ****     }
 122:Generated_Source\PSoC6\pdl\middleware\ble/cy_ble_custom.c **** 
 123:Generated_Source\PSoC6\pdl\middleware\ble/cy_ble_custom.c ****     return(apiResult);
 124:Generated_Source\PSoC6\pdl\middleware\ble/cy_ble_custom.c **** }
 125:Generated_Source\PSoC6\pdl\middleware\ble/cy_ble_custom.c **** 
 126:Generated_Source\PSoC6\pdl\middleware\ble/cy_ble_custom.c **** 
 127:Generated_Source\PSoC6\pdl\middleware\ble/cy_ble_custom.c **** #ifdef CY_BLE_CUSTOM_CLIENT
 128:Generated_Source\PSoC6\pdl\middleware\ble/cy_ble_custom.c **** /******************************************************************************
 129:Generated_Source\PSoC6\pdl\middleware\ble/cy_ble_custom.c **** * Function Name: Cy_BLE_CUSTOMC_DiscoverServiceEventHandler
 130:Generated_Source\PSoC6\pdl\middleware\ble/cy_ble_custom.c **** ***************************************************************************//**
 131:Generated_Source\PSoC6\pdl\middleware\ble/cy_ble_custom.c **** *
 132:Generated_Source\PSoC6\pdl\middleware\ble/cy_ble_custom.c **** *  This function is called on receiving a Read By Group Response event or
 133:Generated_Source\PSoC6\pdl\middleware\ble/cy_ble_custom.c **** *  Read response with the 128-bit service uuid.
 134:Generated_Source\PSoC6\pdl\middleware\ble/cy_ble_custom.c **** *
 135:Generated_Source\PSoC6\pdl\middleware\ble/cy_ble_custom.c **** *  \param connHandle: The connection handle.
 136:Generated_Source\PSoC6\pdl\middleware\ble/cy_ble_custom.c **** *  \param discServInfo: The pointer to a service information structure.
 137:Generated_Source\PSoC6\pdl\middleware\ble/cy_ble_custom.c **** *
 138:Generated_Source\PSoC6\pdl\middleware\ble/cy_ble_custom.c **** * \return
 139:Generated_Source\PSoC6\pdl\middleware\ble/cy_ble_custom.c **** *  None.
 140:Generated_Source\PSoC6\pdl\middleware\ble/cy_ble_custom.c **** *
 141:Generated_Source\PSoC6\pdl\middleware\ble/cy_ble_custom.c **** ******************************************************************************/
 142:Generated_Source\PSoC6\pdl\middleware\ble/cy_ble_custom.c **** static void Cy_BLE_CUSTOMC_DiscoverServiceEventHandler(const cy_stc_ble_disc_srv_info_t *discServIn
 143:Generated_Source\PSoC6\pdl\middleware\ble/cy_ble_custom.c **** {
 144:Generated_Source\PSoC6\pdl\middleware\ble/cy_ble_custom.c ****     uint32_t discIdx = Cy_BLE_GetDiscoveryIdx(discServInfo->connHandle);
ARM GAS  C:\Users\rolf\AppData\Local\Temp\cclwtvUu.s 			page 4


 145:Generated_Source\PSoC6\pdl\middleware\ble/cy_ble_custom.c ****     uint32_t fFlag = 0u;
 146:Generated_Source\PSoC6\pdl\middleware\ble/cy_ble_custom.c ****     uint32_t j;
 147:Generated_Source\PSoC6\pdl\middleware\ble/cy_ble_custom.c **** 
 148:Generated_Source\PSoC6\pdl\middleware\ble/cy_ble_custom.c ****     /* Services with the 128-bit UUID have discServInfo->uuid equal to 0 and the address to
 149:Generated_Source\PSoC6\pdl\middleware\ble/cy_ble_custom.c ****      * the 128-uuid is stored in cy_ble_customCServ.uuid128.
 150:Generated_Source\PSoC6\pdl\middleware\ble/cy_ble_custom.c ****      */
 151:Generated_Source\PSoC6\pdl\middleware\ble/cy_ble_custom.c ****     for(j = 0u; (j < CY_BLE_CUSTOMC_SERVICE_COUNT) && (fFlag == 0u); j++)
 152:Generated_Source\PSoC6\pdl\middleware\ble/cy_ble_custom.c ****     {
 153:Generated_Source\PSoC6\pdl\middleware\ble/cy_ble_custom.c ****         if(cy_ble_customConfigPtr->customc[j].uuidFormat == CY_BLE_GATT_128_BIT_UUID_FORMAT)
 154:Generated_Source\PSoC6\pdl\middleware\ble/cy_ble_custom.c ****         {
 155:Generated_Source\PSoC6\pdl\middleware\ble/cy_ble_custom.c ****             if(memcmp(cy_ble_customConfigPtr->customc[j].uuid, &discServInfo->srvcInfo->uuid.uuid12
 156:Generated_Source\PSoC6\pdl\middleware\ble/cy_ble_custom.c ****                       CY_BLE_GATT_128_BIT_UUID_SIZE) == 0u)
 157:Generated_Source\PSoC6\pdl\middleware\ble/cy_ble_custom.c ****             {
 158:Generated_Source\PSoC6\pdl\middleware\ble/cy_ble_custom.c ****                 if(cy_ble_serverInfo[discIdx][j + (uint32_t)CY_BLE_SRVI_CUSTOMS].range.startHandle 
 159:Generated_Source\PSoC6\pdl\middleware\ble/cy_ble_custom.c ****                    CY_BLE_GATT_INVALID_ATTR_HANDLE_VALUE)
 160:Generated_Source\PSoC6\pdl\middleware\ble/cy_ble_custom.c ****                 {
 161:Generated_Source\PSoC6\pdl\middleware\ble/cy_ble_custom.c ****                     cy_ble_serverInfo[discIdx][j + (uint32_t)CY_BLE_SRVI_CUSTOMS].range.startHandle
 162:Generated_Source\PSoC6\pdl\middleware\ble/cy_ble_custom.c ****                         discServInfo->srvcInfo->range.startHandle;
 163:Generated_Source\PSoC6\pdl\middleware\ble/cy_ble_custom.c **** 
 164:Generated_Source\PSoC6\pdl\middleware\ble/cy_ble_custom.c ****                     cy_ble_serverInfo[discIdx][j + (uint32_t)CY_BLE_SRVI_CUSTOMS].range.endHandle =
 165:Generated_Source\PSoC6\pdl\middleware\ble/cy_ble_custom.c ****                         discServInfo->srvcInfo->range.endHandle;
 166:Generated_Source\PSoC6\pdl\middleware\ble/cy_ble_custom.c **** 
 167:Generated_Source\PSoC6\pdl\middleware\ble/cy_ble_custom.c ****                     cy_ble_discovery[discIdx].servCount++;
 168:Generated_Source\PSoC6\pdl\middleware\ble/cy_ble_custom.c ****                     fFlag = 1u;
 169:Generated_Source\PSoC6\pdl\middleware\ble/cy_ble_custom.c ****                 }
 170:Generated_Source\PSoC6\pdl\middleware\ble/cy_ble_custom.c **** 
 171:Generated_Source\PSoC6\pdl\middleware\ble/cy_ble_custom.c ****                 /* Indicate that request was handled */
 172:Generated_Source\PSoC6\pdl\middleware\ble/cy_ble_custom.c ****                 cy_ble_eventHandlerFlag &= (uint8_t) ~CY_BLE_CALLBACK;
 173:Generated_Source\PSoC6\pdl\middleware\ble/cy_ble_custom.c ****             }
 174:Generated_Source\PSoC6\pdl\middleware\ble/cy_ble_custom.c ****         }
 175:Generated_Source\PSoC6\pdl\middleware\ble/cy_ble_custom.c ****     }
 176:Generated_Source\PSoC6\pdl\middleware\ble/cy_ble_custom.c **** }
 177:Generated_Source\PSoC6\pdl\middleware\ble/cy_ble_custom.c **** 
 178:Generated_Source\PSoC6\pdl\middleware\ble/cy_ble_custom.c **** 
 179:Generated_Source\PSoC6\pdl\middleware\ble/cy_ble_custom.c **** /******************************************************************************
 180:Generated_Source\PSoC6\pdl\middleware\ble/cy_ble_custom.c **** * Function Name: Cy_BLE_CUSTOMC_DiscoverCharacteristicsEventHandler
 181:Generated_Source\PSoC6\pdl\middleware\ble/cy_ble_custom.c **** ***************************************************************************//**
 182:Generated_Source\PSoC6\pdl\middleware\ble/cy_ble_custom.c **** *
 183:Generated_Source\PSoC6\pdl\middleware\ble/cy_ble_custom.c **** *  This function is called on receiving a CY_BLE_EVT_GATTC_READ_BY_TYPE_RSP
 184:Generated_Source\PSoC6\pdl\middleware\ble/cy_ble_custom.c **** *  event. Based on the service index,the appropriate data structure is populated
 185:Generated_Source\PSoC6\pdl\middleware\ble/cy_ble_custom.c **** *  using the data received as part of the callback.
 186:Generated_Source\PSoC6\pdl\middleware\ble/cy_ble_custom.c **** *
 187:Generated_Source\PSoC6\pdl\middleware\ble/cy_ble_custom.c **** *  \param discCharInfo: The pointer to the characteristic information structure.
 188:Generated_Source\PSoC6\pdl\middleware\ble/cy_ble_custom.c **** *
 189:Generated_Source\PSoC6\pdl\middleware\ble/cy_ble_custom.c **** * \return
 190:Generated_Source\PSoC6\pdl\middleware\ble/cy_ble_custom.c **** *  None.
 191:Generated_Source\PSoC6\pdl\middleware\ble/cy_ble_custom.c **** *
 192:Generated_Source\PSoC6\pdl\middleware\ble/cy_ble_custom.c **** ******************************************************************************/
 193:Generated_Source\PSoC6\pdl\middleware\ble/cy_ble_custom.c **** static void Cy_BLE_CUSTOMC_DiscoverCharacteristicsEventHandler(const cy_stc_ble_disc_char_info_t *d
 194:Generated_Source\PSoC6\pdl\middleware\ble/cy_ble_custom.c **** {
 195:Generated_Source\PSoC6\pdl\middleware\ble/cy_ble_custom.c ****     static cy_ble_gatt_db_attr_handle_t *customsLastEndHandle[CY_BLE_GATTC_COUNT] = { NULL };
 196:Generated_Source\PSoC6\pdl\middleware\ble/cy_ble_custom.c ****     static uint32_t discoveryLastServ[CY_BLE_GATTC_COUNT] = { 0u };
 197:Generated_Source\PSoC6\pdl\middleware\ble/cy_ble_custom.c ****     uint32_t discIdx = Cy_BLE_GetDiscoveryIdx(discCharInfo->connHandle);
 198:Generated_Source\PSoC6\pdl\middleware\ble/cy_ble_custom.c ****     uint32_t servIdx = cy_ble_discovery[discIdx].servCount - (uint32_t)CY_BLE_SRVI_CUSTOMS;
 199:Generated_Source\PSoC6\pdl\middleware\ble/cy_ble_custom.c ****     uint32_t locReqHandle = 0u;
 200:Generated_Source\PSoC6\pdl\middleware\ble/cy_ble_custom.c ****     uint32_t locCharIndex;
 201:Generated_Source\PSoC6\pdl\middleware\ble/cy_ble_custom.c **** 
ARM GAS  C:\Users\rolf\AppData\Local\Temp\cclwtvUu.s 			page 5


 202:Generated_Source\PSoC6\pdl\middleware\ble/cy_ble_custom.c ****     if((cy_ble_discovery[discIdx].servCount >= (uint32_t)CY_BLE_SRVI_CUSTOMS) &&
 203:Generated_Source\PSoC6\pdl\middleware\ble/cy_ble_custom.c ****        (cy_ble_discovery[discIdx].servCount <= (uint32_t)CY_BLE_SRVI_CUSTOMS_END))
 204:Generated_Source\PSoC6\pdl\middleware\ble/cy_ble_custom.c ****     {
 205:Generated_Source\PSoC6\pdl\middleware\ble/cy_ble_custom.c ****         /* Update the last characteristic endHandle to the declaration handle of this characteristi
 206:Generated_Source\PSoC6\pdl\middleware\ble/cy_ble_custom.c ****         if(customsLastEndHandle[discIdx] != NULL)
 207:Generated_Source\PSoC6\pdl\middleware\ble/cy_ble_custom.c ****         {
 208:Generated_Source\PSoC6\pdl\middleware\ble/cy_ble_custom.c ****             if(discoveryLastServ[discIdx] == servIdx)
 209:Generated_Source\PSoC6\pdl\middleware\ble/cy_ble_custom.c ****             {
 210:Generated_Source\PSoC6\pdl\middleware\ble/cy_ble_custom.c ****                 *customsLastEndHandle[discIdx] = discCharInfo->charDeclHandle - 1u;
 211:Generated_Source\PSoC6\pdl\middleware\ble/cy_ble_custom.c ****             }
 212:Generated_Source\PSoC6\pdl\middleware\ble/cy_ble_custom.c ****             customsLastEndHandle[discIdx] = NULL;
 213:Generated_Source\PSoC6\pdl\middleware\ble/cy_ble_custom.c ****         }
 214:Generated_Source\PSoC6\pdl\middleware\ble/cy_ble_custom.c **** 
 215:Generated_Source\PSoC6\pdl\middleware\ble/cy_ble_custom.c ****         for(locCharIndex = 0u; (locCharIndex < cy_ble_customConfigPtr->customc[servIdx].charCount) 
 216:Generated_Source\PSoC6\pdl\middleware\ble/cy_ble_custom.c ****             locCharIndex++)
 217:Generated_Source\PSoC6\pdl\middleware\ble/cy_ble_custom.c ****         {
 218:Generated_Source\PSoC6\pdl\middleware\ble/cy_ble_custom.c ****             uint32_t fFlag = 0u;
 219:Generated_Source\PSoC6\pdl\middleware\ble/cy_ble_custom.c **** 
 220:Generated_Source\PSoC6\pdl\middleware\ble/cy_ble_custom.c ****             /* Support the 128-bit uuid */
 221:Generated_Source\PSoC6\pdl\middleware\ble/cy_ble_custom.c ****             if((discCharInfo->uuidFormat == CY_BLE_GATT_128_BIT_UUID_FORMAT) &&
 222:Generated_Source\PSoC6\pdl\middleware\ble/cy_ble_custom.c ****                (cy_ble_customConfigPtr->customc[servIdx].customServChar[locCharIndex].uuidFormat ==
 223:Generated_Source\PSoC6\pdl\middleware\ble/cy_ble_custom.c ****                 CY_BLE_GATT_128_BIT_UUID_FORMAT))
 224:Generated_Source\PSoC6\pdl\middleware\ble/cy_ble_custom.c ****             {
 225:Generated_Source\PSoC6\pdl\middleware\ble/cy_ble_custom.c ****                 if(memcmp(cy_ble_customConfigPtr->customc[servIdx].customServChar[locCharIndex].uui
 226:Generated_Source\PSoC6\pdl\middleware\ble/cy_ble_custom.c ****                           &discCharInfo->uuid.uuid128, CY_BLE_GATT_128_BIT_UUID_SIZE) == 0u)
 227:Generated_Source\PSoC6\pdl\middleware\ble/cy_ble_custom.c ****                 {
 228:Generated_Source\PSoC6\pdl\middleware\ble/cy_ble_custom.c ****                     fFlag = 1u;
 229:Generated_Source\PSoC6\pdl\middleware\ble/cy_ble_custom.c ****                 }
 230:Generated_Source\PSoC6\pdl\middleware\ble/cy_ble_custom.c ****             }
 231:Generated_Source\PSoC6\pdl\middleware\ble/cy_ble_custom.c **** 
 232:Generated_Source\PSoC6\pdl\middleware\ble/cy_ble_custom.c ****             /* And support the 16-bit uuid */
 233:Generated_Source\PSoC6\pdl\middleware\ble/cy_ble_custom.c ****             if((discCharInfo->uuidFormat == CY_BLE_GATT_16_BIT_UUID_FORMAT) &&
 234:Generated_Source\PSoC6\pdl\middleware\ble/cy_ble_custom.c ****                (cy_ble_customConfigPtr->customc[servIdx].customServChar[locCharIndex].uuidFormat ==
 235:Generated_Source\PSoC6\pdl\middleware\ble/cy_ble_custom.c ****                 CY_BLE_GATT_16_BIT_UUID_FORMAT))
 236:Generated_Source\PSoC6\pdl\middleware\ble/cy_ble_custom.c ****             {
 237:Generated_Source\PSoC6\pdl\middleware\ble/cy_ble_custom.c ****                 if(memcmp(cy_ble_customConfigPtr->customc[servIdx].customServChar[locCharIndex].uui
 238:Generated_Source\PSoC6\pdl\middleware\ble/cy_ble_custom.c ****                           &discCharInfo->uuid.uuid16, CY_BLE_GATT_16_BIT_UUID_SIZE) == 0u)
 239:Generated_Source\PSoC6\pdl\middleware\ble/cy_ble_custom.c ****                 {
 240:Generated_Source\PSoC6\pdl\middleware\ble/cy_ble_custom.c ****                     fFlag = 1u;
 241:Generated_Source\PSoC6\pdl\middleware\ble/cy_ble_custom.c ****                 }
 242:Generated_Source\PSoC6\pdl\middleware\ble/cy_ble_custom.c ****             }
 243:Generated_Source\PSoC6\pdl\middleware\ble/cy_ble_custom.c **** 
 244:Generated_Source\PSoC6\pdl\middleware\ble/cy_ble_custom.c ****             if((fFlag == 1u) &&
 245:Generated_Source\PSoC6\pdl\middleware\ble/cy_ble_custom.c ****                (cy_ble_customConfigPtr->customc[servIdx].customServChar[locCharIndex].customServCha
 246:Generated_Source\PSoC6\pdl\middleware\ble/cy_ble_custom.c ****                 CY_BLE_GATT_INVALID_ATTR_HANDLE_VALUE))
 247:Generated_Source\PSoC6\pdl\middleware\ble/cy_ble_custom.c ****             {
 248:Generated_Source\PSoC6\pdl\middleware\ble/cy_ble_custom.c ****                 cy_ble_customConfigPtr->customc[servIdx].customServChar[locCharIndex].customServCha
 249:Generated_Source\PSoC6\pdl\middleware\ble/cy_ble_custom.c ****                     discCharInfo->valueHandle;
 250:Generated_Source\PSoC6\pdl\middleware\ble/cy_ble_custom.c ****                 cy_ble_customConfigPtr->customc[servIdx].customServChar[locCharIndex].properties[di
 251:Generated_Source\PSoC6\pdl\middleware\ble/cy_ble_custom.c ****                     discCharInfo->properties;
 252:Generated_Source\PSoC6\pdl\middleware\ble/cy_ble_custom.c **** 
 253:Generated_Source\PSoC6\pdl\middleware\ble/cy_ble_custom.c ****                 /* Init the pointer to the characteristic endHandle */
 254:Generated_Source\PSoC6\pdl\middleware\ble/cy_ble_custom.c ****                 customsLastEndHandle[discIdx] = &cy_ble_customConfigPtr->customc[servIdx].customSer
 255:Generated_Source\PSoC6\pdl\middleware\ble/cy_ble_custom.c ****                                                  customServCharEndHandle[discIdx];
 256:Generated_Source\PSoC6\pdl\middleware\ble/cy_ble_custom.c **** 
 257:Generated_Source\PSoC6\pdl\middleware\ble/cy_ble_custom.c ****                 /* Init the service index of the discovered characteristic */
 258:Generated_Source\PSoC6\pdl\middleware\ble/cy_ble_custom.c ****                 discoveryLastServ[discIdx] = servIdx;
ARM GAS  C:\Users\rolf\AppData\Local\Temp\cclwtvUu.s 			page 6


 259:Generated_Source\PSoC6\pdl\middleware\ble/cy_ble_custom.c ****                 locReqHandle = 1u;
 260:Generated_Source\PSoC6\pdl\middleware\ble/cy_ble_custom.c ****             }
 261:Generated_Source\PSoC6\pdl\middleware\ble/cy_ble_custom.c ****         }
 262:Generated_Source\PSoC6\pdl\middleware\ble/cy_ble_custom.c **** 
 263:Generated_Source\PSoC6\pdl\middleware\ble/cy_ble_custom.c ****         /* Init the characteristic endHandle to the Service endHandle.
 264:Generated_Source\PSoC6\pdl\middleware\ble/cy_ble_custom.c ****          * The characteristic endHandle will be updated to the declaration
 265:Generated_Source\PSoC6\pdl\middleware\ble/cy_ble_custom.c ****          * Handler of the following characteristic,
 266:Generated_Source\PSoC6\pdl\middleware\ble/cy_ble_custom.c ****          * in the following characteristic discovery procedure. */
 267:Generated_Source\PSoC6\pdl\middleware\ble/cy_ble_custom.c ****         if(customsLastEndHandle[discIdx] != NULL)
 268:Generated_Source\PSoC6\pdl\middleware\ble/cy_ble_custom.c ****         {
 269:Generated_Source\PSoC6\pdl\middleware\ble/cy_ble_custom.c ****             *customsLastEndHandle[discIdx] = cy_ble_serverInfo[discIdx][cy_ble_discovery[discIdx].s
 270:Generated_Source\PSoC6\pdl\middleware\ble/cy_ble_custom.c ****                                               endHandle;
 271:Generated_Source\PSoC6\pdl\middleware\ble/cy_ble_custom.c ****         }
 272:Generated_Source\PSoC6\pdl\middleware\ble/cy_ble_custom.c **** 
 273:Generated_Source\PSoC6\pdl\middleware\ble/cy_ble_custom.c ****         /* Indicate that the request was handled */
 274:Generated_Source\PSoC6\pdl\middleware\ble/cy_ble_custom.c ****         cy_ble_eventHandlerFlag &= (uint8_t) ~CY_BLE_CALLBACK;
 275:Generated_Source\PSoC6\pdl\middleware\ble/cy_ble_custom.c ****     }
 276:Generated_Source\PSoC6\pdl\middleware\ble/cy_ble_custom.c **** }
 277:Generated_Source\PSoC6\pdl\middleware\ble/cy_ble_custom.c **** 
 278:Generated_Source\PSoC6\pdl\middleware\ble/cy_ble_custom.c **** 
 279:Generated_Source\PSoC6\pdl\middleware\ble/cy_ble_custom.c **** /******************************************************************************
 280:Generated_Source\PSoC6\pdl\middleware\ble/cy_ble_custom.c **** * Function Name: Cy_BLE_CUSTOMC_GetCharRange
 281:Generated_Source\PSoC6\pdl\middleware\ble/cy_ble_custom.c **** ***************************************************************************//**
 282:Generated_Source\PSoC6\pdl\middleware\ble/cy_ble_custom.c **** *
 283:Generated_Source\PSoC6\pdl\middleware\ble/cy_ble_custom.c **** * Returns a possible range of the current characteristic descriptor via
 284:Generated_Source\PSoC6\pdl\middleware\ble/cy_ble_custom.c **** * the input parameter charRangeInfo->range.
 285:Generated_Source\PSoC6\pdl\middleware\ble/cy_ble_custom.c **** *
 286:Generated_Source\PSoC6\pdl\middleware\ble/cy_ble_custom.c **** * \param *charRangeInfo: The pointer to the descriptor range information structure.
 287:Generated_Source\PSoC6\pdl\middleware\ble/cy_ble_custom.c **** * \return
 288:Generated_Source\PSoC6\pdl\middleware\ble/cy_ble_custom.c **** *  None.
 289:Generated_Source\PSoC6\pdl\middleware\ble/cy_ble_custom.c **** *
 290:Generated_Source\PSoC6\pdl\middleware\ble/cy_ble_custom.c **** ******************************************************************************/
 291:Generated_Source\PSoC6\pdl\middleware\ble/cy_ble_custom.c **** static void Cy_BLE_CUSTOMC_GetCharRange(cy_stc_ble_disc_range_info_t *charRangeInfo)
 292:Generated_Source\PSoC6\pdl\middleware\ble/cy_ble_custom.c **** {
 293:Generated_Source\PSoC6\pdl\middleware\ble/cy_ble_custom.c ****     uint32_t discIdx = Cy_BLE_GetDiscoveryIdx(charRangeInfo->connHandle);
 294:Generated_Source\PSoC6\pdl\middleware\ble/cy_ble_custom.c ****     uint32_t exitFlag = 0u;
 295:Generated_Source\PSoC6\pdl\middleware\ble/cy_ble_custom.c **** 
 296:Generated_Source\PSoC6\pdl\middleware\ble/cy_ble_custom.c ****     if((cy_ble_discovery[discIdx].servCount >= (uint32_t)CY_BLE_SRVI_CUSTOMS) &&
 297:Generated_Source\PSoC6\pdl\middleware\ble/cy_ble_custom.c ****        (cy_ble_discovery[discIdx].servCount <= (uint32_t)CY_BLE_SRVI_CUSTOMS_END))
 298:Generated_Source\PSoC6\pdl\middleware\ble/cy_ble_custom.c ****     {
 299:Generated_Source\PSoC6\pdl\middleware\ble/cy_ble_custom.c ****         uint32_t servIdx = cy_ble_discovery[discIdx].servCount - (uint32_t)CY_BLE_SRVI_CUSTOMS;
 300:Generated_Source\PSoC6\pdl\middleware\ble/cy_ble_custom.c **** 
 301:Generated_Source\PSoC6\pdl\middleware\ble/cy_ble_custom.c ****         if(charRangeInfo->srviIncIdx != CY_BLE_DISCOVERY_INIT)
 302:Generated_Source\PSoC6\pdl\middleware\ble/cy_ble_custom.c ****         {
 303:Generated_Source\PSoC6\pdl\middleware\ble/cy_ble_custom.c ****             cy_ble_discovery[discIdx].charCount++;
 304:Generated_Source\PSoC6\pdl\middleware\ble/cy_ble_custom.c ****         }
 305:Generated_Source\PSoC6\pdl\middleware\ble/cy_ble_custom.c **** 
 306:Generated_Source\PSoC6\pdl\middleware\ble/cy_ble_custom.c ****         while((cy_ble_discovery[discIdx].charCount < cy_ble_customConfigPtr->customc[servIdx].charC
 307:Generated_Source\PSoC6\pdl\middleware\ble/cy_ble_custom.c ****               (exitFlag == 0u))
 308:Generated_Source\PSoC6\pdl\middleware\ble/cy_ble_custom.c ****         {
 309:Generated_Source\PSoC6\pdl\middleware\ble/cy_ble_custom.c ****             uint32_t charIdx = cy_ble_discovery[discIdx].charCount;
 310:Generated_Source\PSoC6\pdl\middleware\ble/cy_ble_custom.c ****             if(cy_ble_customConfigPtr->customc[servIdx].customServChar[charIdx].descCount > 0u)
 311:Generated_Source\PSoC6\pdl\middleware\ble/cy_ble_custom.c ****             {
 312:Generated_Source\PSoC6\pdl\middleware\ble/cy_ble_custom.c ****                 /* Read the characteristic range */
 313:Generated_Source\PSoC6\pdl\middleware\ble/cy_ble_custom.c ****                 charRangeInfo->range.startHandle = cy_ble_customConfigPtr->customc[servIdx].customS
 314:Generated_Source\PSoC6\pdl\middleware\ble/cy_ble_custom.c ****                                                     customServCharHandle[discIdx] + 1u;
 315:Generated_Source\PSoC6\pdl\middleware\ble/cy_ble_custom.c ****                 charRangeInfo->range.endHandle = cy_ble_customConfigPtr->customc[servIdx].customSer
ARM GAS  C:\Users\rolf\AppData\Local\Temp\cclwtvUu.s 			page 7


 316:Generated_Source\PSoC6\pdl\middleware\ble/cy_ble_custom.c ****                                                   customServCharEndHandle[discIdx];
 317:Generated_Source\PSoC6\pdl\middleware\ble/cy_ble_custom.c ****                 exitFlag = 1u;
 318:Generated_Source\PSoC6\pdl\middleware\ble/cy_ble_custom.c ****             }
 319:Generated_Source\PSoC6\pdl\middleware\ble/cy_ble_custom.c ****             else
 320:Generated_Source\PSoC6\pdl\middleware\ble/cy_ble_custom.c ****             {
 321:Generated_Source\PSoC6\pdl\middleware\ble/cy_ble_custom.c ****                 cy_ble_discovery[discIdx].charCount++;
 322:Generated_Source\PSoC6\pdl\middleware\ble/cy_ble_custom.c ****             }
 323:Generated_Source\PSoC6\pdl\middleware\ble/cy_ble_custom.c ****         }
 324:Generated_Source\PSoC6\pdl\middleware\ble/cy_ble_custom.c **** 
 325:Generated_Source\PSoC6\pdl\middleware\ble/cy_ble_custom.c ****         /* Indicate that the request was handled */
 326:Generated_Source\PSoC6\pdl\middleware\ble/cy_ble_custom.c ****         cy_ble_eventHandlerFlag &= (uint8_t) ~CY_BLE_CALLBACK;
 327:Generated_Source\PSoC6\pdl\middleware\ble/cy_ble_custom.c ****     }
 328:Generated_Source\PSoC6\pdl\middleware\ble/cy_ble_custom.c **** }
 329:Generated_Source\PSoC6\pdl\middleware\ble/cy_ble_custom.c **** 
 330:Generated_Source\PSoC6\pdl\middleware\ble/cy_ble_custom.c **** 
 331:Generated_Source\PSoC6\pdl\middleware\ble/cy_ble_custom.c **** /******************************************************************************
 332:Generated_Source\PSoC6\pdl\middleware\ble/cy_ble_custom.c **** * Function Name: Cy_BLE_CUSTOMC_DiscoverCharDescriptorsEventHandler
 333:Generated_Source\PSoC6\pdl\middleware\ble/cy_ble_custom.c **** ***************************************************************************//**
 334:Generated_Source\PSoC6\pdl\middleware\ble/cy_ble_custom.c **** *
 335:Generated_Source\PSoC6\pdl\middleware\ble/cy_ble_custom.c **** *  This function is called on receiving a CY_BLE_EVT_GATTC_FIND_INFO_RSP event.
 336:Generated_Source\PSoC6\pdl\middleware\ble/cy_ble_custom.c **** *  Based on the descriptor UUID, the appropriate data structure is populated using
 337:Generated_Source\PSoC6\pdl\middleware\ble/cy_ble_custom.c **** *  the data received as part of the callback.
 338:Generated_Source\PSoC6\pdl\middleware\ble/cy_ble_custom.c **** *
 339:Generated_Source\PSoC6\pdl\middleware\ble/cy_ble_custom.c **** *  \param discDescrInfo: The pointer to the descriptor information structure.
 340:Generated_Source\PSoC6\pdl\middleware\ble/cy_ble_custom.c **** *
 341:Generated_Source\PSoC6\pdl\middleware\ble/cy_ble_custom.c **** * \return
 342:Generated_Source\PSoC6\pdl\middleware\ble/cy_ble_custom.c **** *  None.
 343:Generated_Source\PSoC6\pdl\middleware\ble/cy_ble_custom.c **** *
 344:Generated_Source\PSoC6\pdl\middleware\ble/cy_ble_custom.c **** ******************************************************************************/
 345:Generated_Source\PSoC6\pdl\middleware\ble/cy_ble_custom.c **** static void Cy_BLE_CUSTOMC_DiscoverCharDescriptorsEventHandler(const cy_stc_ble_disc_descr_info_t *
 346:Generated_Source\PSoC6\pdl\middleware\ble/cy_ble_custom.c **** {
 347:Generated_Source\PSoC6\pdl\middleware\ble/cy_ble_custom.c ****     uint32_t locDescIndex;
 348:Generated_Source\PSoC6\pdl\middleware\ble/cy_ble_custom.c ****     uint32_t locReqHandle = 0u;
 349:Generated_Source\PSoC6\pdl\middleware\ble/cy_ble_custom.c ****     uint32_t discIdx = Cy_BLE_GetDiscoveryIdx(discDescrInfo->connHandle);
 350:Generated_Source\PSoC6\pdl\middleware\ble/cy_ble_custom.c **** 
 351:Generated_Source\PSoC6\pdl\middleware\ble/cy_ble_custom.c ****     if((cy_ble_discovery[discIdx].servCount >= ((uint32_t)CY_BLE_SRVI_CUSTOMS)) &&
 352:Generated_Source\PSoC6\pdl\middleware\ble/cy_ble_custom.c ****        (cy_ble_discovery[discIdx].servCount <= ((uint32_t)CY_BLE_SRVI_CUSTOMS_END)))
 353:Generated_Source\PSoC6\pdl\middleware\ble/cy_ble_custom.c ****     {
 354:Generated_Source\PSoC6\pdl\middleware\ble/cy_ble_custom.c ****         uint32_t servIdx = cy_ble_discovery[discIdx].servCount - (uint32_t)CY_BLE_SRVI_CUSTOMS;
 355:Generated_Source\PSoC6\pdl\middleware\ble/cy_ble_custom.c ****         uint32_t charIdx = cy_ble_discovery[discIdx].charCount;
 356:Generated_Source\PSoC6\pdl\middleware\ble/cy_ble_custom.c **** 
 357:Generated_Source\PSoC6\pdl\middleware\ble/cy_ble_custom.c ****         for(locDescIndex = 0u; (locDescIndex < cy_ble_customConfigPtr->customc[servIdx].customServC
 358:Generated_Source\PSoC6\pdl\middleware\ble/cy_ble_custom.c ****             (locReqHandle == 0u); locDescIndex++)
 359:Generated_Source\PSoC6\pdl\middleware\ble/cy_ble_custom.c ****         {
 360:Generated_Source\PSoC6\pdl\middleware\ble/cy_ble_custom.c ****             uint32_t fFlag = 0u;
 361:Generated_Source\PSoC6\pdl\middleware\ble/cy_ble_custom.c **** 
 362:Generated_Source\PSoC6\pdl\middleware\ble/cy_ble_custom.c ****             if((discDescrInfo->uuidFormat == CY_BLE_GATT_128_BIT_UUID_FORMAT) &&
 363:Generated_Source\PSoC6\pdl\middleware\ble/cy_ble_custom.c ****                (cy_ble_customConfigPtr->customc[servIdx].customServChar[charIdx].customServCharDesc
 364:Generated_Source\PSoC6\pdl\middleware\ble/cy_ble_custom.c ****                  uuidFormat == CY_BLE_GATT_128_BIT_UUID_FORMAT))
 365:Generated_Source\PSoC6\pdl\middleware\ble/cy_ble_custom.c ****             {
 366:Generated_Source\PSoC6\pdl\middleware\ble/cy_ble_custom.c ****                 if(memcmp(cy_ble_customConfigPtr->customc[servIdx].customServChar[charIdx].
 367:Generated_Source\PSoC6\pdl\middleware\ble/cy_ble_custom.c ****                            customServCharDesc[locDescIndex].uuid, &discDescrInfo->uuid.uuid128,
 368:Generated_Source\PSoC6\pdl\middleware\ble/cy_ble_custom.c ****                           CY_BLE_GATT_128_BIT_UUID_SIZE) == 0u)
 369:Generated_Source\PSoC6\pdl\middleware\ble/cy_ble_custom.c ****                 {
 370:Generated_Source\PSoC6\pdl\middleware\ble/cy_ble_custom.c ****                     fFlag = 1u;
 371:Generated_Source\PSoC6\pdl\middleware\ble/cy_ble_custom.c ****                 }
 372:Generated_Source\PSoC6\pdl\middleware\ble/cy_ble_custom.c ****             }
ARM GAS  C:\Users\rolf\AppData\Local\Temp\cclwtvUu.s 			page 8


 373:Generated_Source\PSoC6\pdl\middleware\ble/cy_ble_custom.c **** 
 374:Generated_Source\PSoC6\pdl\middleware\ble/cy_ble_custom.c ****             if((discDescrInfo->uuidFormat == CY_BLE_GATT_16_BIT_UUID_FORMAT) &&
 375:Generated_Source\PSoC6\pdl\middleware\ble/cy_ble_custom.c ****                (cy_ble_customConfigPtr->customc[servIdx].customServChar[charIdx].customServCharDesc
 376:Generated_Source\PSoC6\pdl\middleware\ble/cy_ble_custom.c ****                  uuidFormat == CY_BLE_GATT_16_BIT_UUID_FORMAT))
 377:Generated_Source\PSoC6\pdl\middleware\ble/cy_ble_custom.c ****             {
 378:Generated_Source\PSoC6\pdl\middleware\ble/cy_ble_custom.c ****                 if(memcmp(cy_ble_customConfigPtr->customc[servIdx].customServChar[charIdx].
 379:Generated_Source\PSoC6\pdl\middleware\ble/cy_ble_custom.c ****                            customServCharDesc[locDescIndex].uuid, &discDescrInfo->uuid.uuid16,
 380:Generated_Source\PSoC6\pdl\middleware\ble/cy_ble_custom.c ****                           CY_BLE_GATT_16_BIT_UUID_SIZE) == 0u)
 381:Generated_Source\PSoC6\pdl\middleware\ble/cy_ble_custom.c ****                 {
 382:Generated_Source\PSoC6\pdl\middleware\ble/cy_ble_custom.c ****                     fFlag = 1u;
 383:Generated_Source\PSoC6\pdl\middleware\ble/cy_ble_custom.c ****                 }
 384:Generated_Source\PSoC6\pdl\middleware\ble/cy_ble_custom.c ****             }
 385:Generated_Source\PSoC6\pdl\middleware\ble/cy_ble_custom.c **** 
 386:Generated_Source\PSoC6\pdl\middleware\ble/cy_ble_custom.c ****             if((fFlag == 1u) &&
 387:Generated_Source\PSoC6\pdl\middleware\ble/cy_ble_custom.c ****                (cy_ble_customConfigPtr->customc[servIdx].customServChar[charIdx].customServCharDesc
 388:Generated_Source\PSoC6\pdl\middleware\ble/cy_ble_custom.c ****                  descHandle[discIdx] == CY_BLE_GATT_INVALID_ATTR_HANDLE_VALUE))
 389:Generated_Source\PSoC6\pdl\middleware\ble/cy_ble_custom.c ****             {
 390:Generated_Source\PSoC6\pdl\middleware\ble/cy_ble_custom.c ****                 cy_ble_customConfigPtr->customc[servIdx].customServChar[charIdx].customServCharDesc
 391:Generated_Source\PSoC6\pdl\middleware\ble/cy_ble_custom.c ****                  descHandle[discIdx] = discDescrInfo->descrHandle;
 392:Generated_Source\PSoC6\pdl\middleware\ble/cy_ble_custom.c ****                 locReqHandle = 1u;
 393:Generated_Source\PSoC6\pdl\middleware\ble/cy_ble_custom.c ****             }
 394:Generated_Source\PSoC6\pdl\middleware\ble/cy_ble_custom.c ****         }
 395:Generated_Source\PSoC6\pdl\middleware\ble/cy_ble_custom.c ****     }
 396:Generated_Source\PSoC6\pdl\middleware\ble/cy_ble_custom.c **** }
 397:Generated_Source\PSoC6\pdl\middleware\ble/cy_ble_custom.c **** 
 398:Generated_Source\PSoC6\pdl\middleware\ble/cy_ble_custom.c **** #endif /* (CY_BLE_CUSTOM_CLIENT) */
 399:Generated_Source\PSoC6\pdl\middleware\ble/cy_ble_custom.c **** 
 400:Generated_Source\PSoC6\pdl\middleware\ble/cy_ble_custom.c **** /******************************************************************************
 401:Generated_Source\PSoC6\pdl\middleware\ble/cy_ble_custom.c **** * Function Name: Cy_BLE_CUSTOM_EventHandler
 402:Generated_Source\PSoC6\pdl\middleware\ble/cy_ble_custom.c **** ***************************************************************************//**
 403:Generated_Source\PSoC6\pdl\middleware\ble/cy_ble_custom.c **** *
 404:Generated_Source\PSoC6\pdl\middleware\ble/cy_ble_custom.c **** *  Handles events from the BLE Stack for the Custom Service.
 405:Generated_Source\PSoC6\pdl\middleware\ble/cy_ble_custom.c **** *
 406:Generated_Source\PSoC6\pdl\middleware\ble/cy_ble_custom.c **** *  \param eventCode:  The event code.
 407:Generated_Source\PSoC6\pdl\middleware\ble/cy_ble_custom.c **** *  \param eventParam:  The event parameters.
 408:Generated_Source\PSoC6\pdl\middleware\ble/cy_ble_custom.c **** *
 409:Generated_Source\PSoC6\pdl\middleware\ble/cy_ble_custom.c **** * \return
 410:Generated_Source\PSoC6\pdl\middleware\ble/cy_ble_custom.c **** *  The return value is of the type cy_en_ble_gatt_err_code_t.
 411:Generated_Source\PSoC6\pdl\middleware\ble/cy_ble_custom.c **** *
 412:Generated_Source\PSoC6\pdl\middleware\ble/cy_ble_custom.c **** ******************************************************************************/
 413:Generated_Source\PSoC6\pdl\middleware\ble/cy_ble_custom.c **** static cy_en_ble_gatt_err_code_t Cy_BLE_CUSTOM_EventHandler(uint32_t eventCode,
 414:Generated_Source\PSoC6\pdl\middleware\ble/cy_ble_custom.c ****                                                             void *eventParam)
 415:Generated_Source\PSoC6\pdl\middleware\ble/cy_ble_custom.c **** {
  28              		.loc 1 415 0
  29              		.cfi_startproc
  30              		@ args = 0, pretend = 0, frame = 0
  31              		@ frame_needed = 0, uses_anonymous_args = 0
  32              		@ link register save eliminated.
  33              	.LVL0:
 416:Generated_Source\PSoC6\pdl\middleware\ble/cy_ble_custom.c ****     if(eventCode > (uint32_t)CY_BLE_EVT_MAX)
 417:Generated_Source\PSoC6\pdl\middleware\ble/cy_ble_custom.c ****     {
 418:Generated_Source\PSoC6\pdl\middleware\ble/cy_ble_custom.c ****         /**************************************************************************
 419:Generated_Source\PSoC6\pdl\middleware\ble/cy_ble_custom.c ****          * Handling Service Specific Events
 420:Generated_Source\PSoC6\pdl\middleware\ble/cy_ble_custom.c ****          ***************************************************************************/
 421:Generated_Source\PSoC6\pdl\middleware\ble/cy_ble_custom.c ****         switch((cy_en_ble_evt_t)eventCode)
 422:Generated_Source\PSoC6\pdl\middleware\ble/cy_ble_custom.c ****         {
 423:Generated_Source\PSoC6\pdl\middleware\ble/cy_ble_custom.c ****         #ifdef CY_BLE_CUSTOM_CLIENT
ARM GAS  C:\Users\rolf\AppData\Local\Temp\cclwtvUu.s 			page 9


 424:Generated_Source\PSoC6\pdl\middleware\ble/cy_ble_custom.c ****             /* Discovery events */
 425:Generated_Source\PSoC6\pdl\middleware\ble/cy_ble_custom.c ****             case CY_BLE_EVT_GATTC_DISC_SERVICE:
 426:Generated_Source\PSoC6\pdl\middleware\ble/cy_ble_custom.c ****                 Cy_BLE_CUSTOMC_DiscoverServiceEventHandler((cy_stc_ble_disc_srv_info_t*)eventParam)
 427:Generated_Source\PSoC6\pdl\middleware\ble/cy_ble_custom.c ****                 break;
 428:Generated_Source\PSoC6\pdl\middleware\ble/cy_ble_custom.c **** 
 429:Generated_Source\PSoC6\pdl\middleware\ble/cy_ble_custom.c ****             case CY_BLE_EVT_GATTC_DISC_CHAR:
 430:Generated_Source\PSoC6\pdl\middleware\ble/cy_ble_custom.c ****                 Cy_BLE_CUSTOMC_DiscoverCharacteristicsEventHandler((cy_stc_ble_disc_char_info_t*)ev
 431:Generated_Source\PSoC6\pdl\middleware\ble/cy_ble_custom.c ****                 break;
 432:Generated_Source\PSoC6\pdl\middleware\ble/cy_ble_custom.c **** 
 433:Generated_Source\PSoC6\pdl\middleware\ble/cy_ble_custom.c ****             case CY_BLE_EVT_GATTC_DISC_DESCR:
 434:Generated_Source\PSoC6\pdl\middleware\ble/cy_ble_custom.c ****                 Cy_BLE_CUSTOMC_DiscoverCharDescriptorsEventHandler((cy_stc_ble_disc_descr_info_t*)e
 435:Generated_Source\PSoC6\pdl\middleware\ble/cy_ble_custom.c ****                 break;
 436:Generated_Source\PSoC6\pdl\middleware\ble/cy_ble_custom.c **** 
 437:Generated_Source\PSoC6\pdl\middleware\ble/cy_ble_custom.c ****             case CY_BLE_EVT_GATTC_DISC_DESCR_GET_RANGE:
 438:Generated_Source\PSoC6\pdl\middleware\ble/cy_ble_custom.c ****                 Cy_BLE_CUSTOMC_GetCharRange((cy_stc_ble_disc_range_info_t*)eventParam);
 439:Generated_Source\PSoC6\pdl\middleware\ble/cy_ble_custom.c ****                 break;
 440:Generated_Source\PSoC6\pdl\middleware\ble/cy_ble_custom.c ****         #endif /* CY_BLE_CUSTOM_CLIENT */
 441:Generated_Source\PSoC6\pdl\middleware\ble/cy_ble_custom.c **** 
 442:Generated_Source\PSoC6\pdl\middleware\ble/cy_ble_custom.c ****             default:
 443:Generated_Source\PSoC6\pdl\middleware\ble/cy_ble_custom.c ****                 break;
 444:Generated_Source\PSoC6\pdl\middleware\ble/cy_ble_custom.c ****         }
 445:Generated_Source\PSoC6\pdl\middleware\ble/cy_ble_custom.c ****     }
 446:Generated_Source\PSoC6\pdl\middleware\ble/cy_ble_custom.c ****     else
 447:Generated_Source\PSoC6\pdl\middleware\ble/cy_ble_custom.c ****     {
 448:Generated_Source\PSoC6\pdl\middleware\ble/cy_ble_custom.c ****         switch((cy_en_ble_event_t)eventCode)
 449:Generated_Source\PSoC6\pdl\middleware\ble/cy_ble_custom.c ****         {
 450:Generated_Source\PSoC6\pdl\middleware\ble/cy_ble_custom.c ****             /**************************************************************************
 451:Generated_Source\PSoC6\pdl\middleware\ble/cy_ble_custom.c ****              * Handling GATT Server Events
 452:Generated_Source\PSoC6\pdl\middleware\ble/cy_ble_custom.c ****              ***************************************************************************/
 453:Generated_Source\PSoC6\pdl\middleware\ble/cy_ble_custom.c **** 
 454:Generated_Source\PSoC6\pdl\middleware\ble/cy_ble_custom.c ****             /**************************************************************************
 455:Generated_Source\PSoC6\pdl\middleware\ble/cy_ble_custom.c ****              * Handling GATT Client Events
 456:Generated_Source\PSoC6\pdl\middleware\ble/cy_ble_custom.c ****              ***************************************************************************/
 457:Generated_Source\PSoC6\pdl\middleware\ble/cy_ble_custom.c ****         #ifdef CY_BLE_CUSTOM_CLIENT
 458:Generated_Source\PSoC6\pdl\middleware\ble/cy_ble_custom.c ****             case CY_BLE_EVT_GATTC_READ_RSP:
 459:Generated_Source\PSoC6\pdl\middleware\ble/cy_ble_custom.c ****             case CY_BLE_EVT_GATTC_READ_MULTI_RSP:
 460:Generated_Source\PSoC6\pdl\middleware\ble/cy_ble_custom.c ****             {
 461:Generated_Source\PSoC6\pdl\middleware\ble/cy_ble_custom.c ****                 cy_stc_ble_gattc_read_rsp_param_t *eventParamCast = (cy_stc_ble_gattc_read_rsp_para
 462:Generated_Source\PSoC6\pdl\middleware\ble/cy_ble_custom.c ****                 cy_stc_ble_conn_handle_t locConnHandle = eventParamCast->connHandle;
 463:Generated_Source\PSoC6\pdl\middleware\ble/cy_ble_custom.c ****                 uint32_t discIdx = Cy_BLE_GetDiscoveryIdx(locConnHandle);
 464:Generated_Source\PSoC6\pdl\middleware\ble/cy_ble_custom.c **** 
 465:Generated_Source\PSoC6\pdl\middleware\ble/cy_ble_custom.c ****                 /* Read the response with the 128-bit included service uuid */
 466:Generated_Source\PSoC6\pdl\middleware\ble/cy_ble_custom.c ****                 if((Cy_BLE_GetConnectionState(locConnHandle) == CY_BLE_CONN_STATE_CLIENT_INCL_DISCO
 467:Generated_Source\PSoC6\pdl\middleware\ble/cy_ble_custom.c ****                    (discIdx < CY_BLE_GATTC_COUNT) && (cy_ble_discovery[discIdx].inclInfo.inclDefHan
 468:Generated_Source\PSoC6\pdl\middleware\ble/cy_ble_custom.c ****                 {
 469:Generated_Source\PSoC6\pdl\middleware\ble/cy_ble_custom.c ****                     cy_stc_ble_disc_srvc128_info_t discServ128Info;
 470:Generated_Source\PSoC6\pdl\middleware\ble/cy_ble_custom.c ****                     cy_stc_ble_disc_srv_info_t locDiscServInfo =
 471:Generated_Source\PSoC6\pdl\middleware\ble/cy_ble_custom.c ****                     {
 472:Generated_Source\PSoC6\pdl\middleware\ble/cy_ble_custom.c ****                         .srvcInfo   = &discServ128Info,
 473:Generated_Source\PSoC6\pdl\middleware\ble/cy_ble_custom.c ****                         .connHandle = locConnHandle
 474:Generated_Source\PSoC6\pdl\middleware\ble/cy_ble_custom.c ****                     };
 475:Generated_Source\PSoC6\pdl\middleware\ble/cy_ble_custom.c **** 
 476:Generated_Source\PSoC6\pdl\middleware\ble/cy_ble_custom.c ****                     /* Store the service range */
 477:Generated_Source\PSoC6\pdl\middleware\ble/cy_ble_custom.c ****                     discServ128Info.range = cy_ble_discovery[discIdx].inclInfo.inclHandleRange;
 478:Generated_Source\PSoC6\pdl\middleware\ble/cy_ble_custom.c ****                     (void)memcpy((void*)discServ128Info.uuid.uuid128.value, (void*)eventParamCast->
 479:Generated_Source\PSoC6\pdl\middleware\ble/cy_ble_custom.c ****                                  (uint32_t)eventParamCast->value.len);
 480:Generated_Source\PSoC6\pdl\middleware\ble/cy_ble_custom.c ****                     Cy_BLE_CUSTOMC_DiscoverServiceEventHandler(&locDiscServInfo);
ARM GAS  C:\Users\rolf\AppData\Local\Temp\cclwtvUu.s 			page 10


 481:Generated_Source\PSoC6\pdl\middleware\ble/cy_ble_custom.c **** 
 482:Generated_Source\PSoC6\pdl\middleware\ble/cy_ble_custom.c ****                     /* Re-initiate the function, setting the start
 483:Generated_Source\PSoC6\pdl\middleware\ble/cy_ble_custom.c ****                      * handle to the attribute handle which is placed next to the one used in
 484:Generated_Source\PSoC6\pdl\middleware\ble/cy_ble_custom.c ****                      * the above step.
 485:Generated_Source\PSoC6\pdl\middleware\ble/cy_ble_custom.c ****                      */
 486:Generated_Source\PSoC6\pdl\middleware\ble/cy_ble_custom.c ****                     discServ128Info.range.startHandle = cy_ble_discovery[discIdx].inclInfo.inclDefH
 487:Generated_Source\PSoC6\pdl\middleware\ble/cy_ble_custom.c ****                     discServ128Info.range.endHandle =
 488:Generated_Source\PSoC6\pdl\middleware\ble/cy_ble_custom.c ****                         cy_ble_serverInfo[discIdx][cy_ble_discovery[discIdx].servCount].range.endHa
 489:Generated_Source\PSoC6\pdl\middleware\ble/cy_ble_custom.c ****                     if(discServ128Info.range.startHandle <= discServ128Info.range.endHandle)
 490:Generated_Source\PSoC6\pdl\middleware\ble/cy_ble_custom.c ****                     {
 491:Generated_Source\PSoC6\pdl\middleware\ble/cy_ble_custom.c ****                         cy_stc_ble_gattc_read_by_type_req_t requestParam =
 492:Generated_Source\PSoC6\pdl\middleware\ble/cy_ble_custom.c ****                         {
 493:Generated_Source\PSoC6\pdl\middleware\ble/cy_ble_custom.c ****                             .range      = discServ128Info.range,
 494:Generated_Source\PSoC6\pdl\middleware\ble/cy_ble_custom.c ****                             .connHandle = eventParamCast->connHandle
 495:Generated_Source\PSoC6\pdl\middleware\ble/cy_ble_custom.c ****                         };
 496:Generated_Source\PSoC6\pdl\middleware\ble/cy_ble_custom.c ****                         if(Cy_BLE_GATTC_FindIncludedServices(&requestParam) != CY_BLE_SUCCESS)
 497:Generated_Source\PSoC6\pdl\middleware\ble/cy_ble_custom.c ****                         {
 498:Generated_Source\PSoC6\pdl\middleware\ble/cy_ble_custom.c ****                             Cy_BLE_ApplCallback((uint32_t)CY_BLE_EVT_GATTC_INCL_DISCOVERY_FAILED,
 499:Generated_Source\PSoC6\pdl\middleware\ble/cy_ble_custom.c ****                                                 &eventParamCast->connHandle);
 500:Generated_Source\PSoC6\pdl\middleware\ble/cy_ble_custom.c ****                             cy_ble_discovery[discIdx].autoDiscoveryFlag = 0u;
 501:Generated_Source\PSoC6\pdl\middleware\ble/cy_ble_custom.c ****                         }
 502:Generated_Source\PSoC6\pdl\middleware\ble/cy_ble_custom.c ****                     }
 503:Generated_Source\PSoC6\pdl\middleware\ble/cy_ble_custom.c ****                     else     /* Continue discovery of the following service */
 504:Generated_Source\PSoC6\pdl\middleware\ble/cy_ble_custom.c ****                     {
 505:Generated_Source\PSoC6\pdl\middleware\ble/cy_ble_custom.c ****                         Cy_BLE_NextInclDiscovery(eventParamCast->connHandle, CY_BLE_DISCOVERY_CONTI
 506:Generated_Source\PSoC6\pdl\middleware\ble/cy_ble_custom.c ****                     }
 507:Generated_Source\PSoC6\pdl\middleware\ble/cy_ble_custom.c **** 
 508:Generated_Source\PSoC6\pdl\middleware\ble/cy_ble_custom.c ****                     cy_ble_eventHandlerFlag &= (uint8_t) ~CY_BLE_CALLBACK;
 509:Generated_Source\PSoC6\pdl\middleware\ble/cy_ble_custom.c ****                     cy_ble_discovery[discIdx].inclInfo.inclDefHandle = 0u;
 510:Generated_Source\PSoC6\pdl\middleware\ble/cy_ble_custom.c ****                 }
 511:Generated_Source\PSoC6\pdl\middleware\ble/cy_ble_custom.c ****             }
 512:Generated_Source\PSoC6\pdl\middleware\ble/cy_ble_custom.c ****             break;
 513:Generated_Source\PSoC6\pdl\middleware\ble/cy_ble_custom.c ****         #endif /* CY_BLE_CUSTOM_CLIENT */
 514:Generated_Source\PSoC6\pdl\middleware\ble/cy_ble_custom.c **** 
 515:Generated_Source\PSoC6\pdl\middleware\ble/cy_ble_custom.c ****             default:
 516:Generated_Source\PSoC6\pdl\middleware\ble/cy_ble_custom.c ****                 break;
 517:Generated_Source\PSoC6\pdl\middleware\ble/cy_ble_custom.c ****         }
 518:Generated_Source\PSoC6\pdl\middleware\ble/cy_ble_custom.c ****     }
 519:Generated_Source\PSoC6\pdl\middleware\ble/cy_ble_custom.c **** 
 520:Generated_Source\PSoC6\pdl\middleware\ble/cy_ble_custom.c ****     return(CY_BLE_GATT_ERR_NONE);
 521:Generated_Source\PSoC6\pdl\middleware\ble/cy_ble_custom.c **** }
  34              		.loc 1 521 0
  35 0000 0020     		movs	r0, #0
  36              	.LVL1:
  37 0002 7047     		bx	lr
  38              		.cfi_endproc
  39              	.LFE256:
  40              		.size	Cy_BLE_CUSTOM_EventHandler, .-Cy_BLE_CUSTOM_EventHandler
  41              		.section	.text.Cy_BLE_CUSTOM_Init,"ax",%progbits
  42              		.align	2
  43              		.global	Cy_BLE_CUSTOM_Init
  44              		.thumb
  45              		.thumb_func
  46              		.type	Cy_BLE_CUSTOM_Init, %function
  47              	Cy_BLE_CUSTOM_Init:
  48              	.LFB255:
  61:Generated_Source\PSoC6\pdl\middleware\ble/cy_ble_custom.c ****     cy_en_ble_api_result_t apiResult;
ARM GAS  C:\Users\rolf\AppData\Local\Temp\cclwtvUu.s 			page 11


  49              		.loc 1 61 0
  50              		.cfi_startproc
  51              		@ args = 0, pretend = 0, frame = 0
  52              		@ frame_needed = 0, uses_anonymous_args = 0
  53              	.LVL2:
  64:Generated_Source\PSoC6\pdl\middleware\ble/cy_ble_custom.c ****     {
  54              		.loc 1 64 0
  55 0000 30B1     		cbz	r0, .L4
  61:Generated_Source\PSoC6\pdl\middleware\ble/cy_ble_custom.c ****     cy_en_ble_api_result_t apiResult;
  56              		.loc 1 61 0
  57 0002 08B5     		push	{r3, lr}
  58              		.cfi_def_cfa_offset 8
  59              		.cfi_offset 3, -8
  60              		.cfi_offset 14, -4
  71:Generated_Source\PSoC6\pdl\middleware\ble/cy_ble_custom.c **** 
  61              		.loc 1 71 0
  62 0004 034A     		ldr	r2, .L7
  63 0006 1060     		str	r0, [r2]
  74:Generated_Source\PSoC6\pdl\middleware\ble/cy_ble_custom.c **** 
  64              		.loc 1 74 0
  65 0008 0348     		ldr	r0, .L7+4
  66              	.LVL3:
  67 000a FFF7FEFF 		bl	Cy_BLE_RegisterServiceEventHandler
  68              	.LVL4:
  69 000e 08BD     		pop	{r3, pc}
  70              	.LVL5:
  71              	.L4:
  72              		.cfi_def_cfa_offset 0
  73              		.cfi_restore 3
  74              		.cfi_restore 14
  66:Generated_Source\PSoC6\pdl\middleware\ble/cy_ble_custom.c ****     }
  75              		.loc 1 66 0
  76 0010 0248     		ldr	r0, .L7+8
  77              	.LVL6:
  78 0012 7047     		bx	lr
  79              	.L8:
  80              		.align	2
  81              	.L7:
  82 0014 00000000 		.word	.LANCHOR0
  83 0018 00000000 		.word	Cy_BLE_CUSTOM_EventHandler
  84 001c 01001600 		.word	1441793
  85              		.cfi_endproc
  86              	.LFE255:
  87              		.size	Cy_BLE_CUSTOM_Init, .-Cy_BLE_CUSTOM_Init
  88              		.global	cy_ble_customConfigPtr
  89              		.bss
  90              		.align	2
  91              		.set	.LANCHOR0,. + 0
  92              		.type	cy_ble_customConfigPtr, %object
  93              		.size	cy_ble_customConfigPtr, 4
  94              	cy_ble_customConfigPtr:
  95 0000 00000000 		.space	4
  96              		.text
  97              	.Letext0:
  98              		.file 2 "c:\\program files (x86)\\cypress\\psoc creator\\4.4\\psoc creator\\import\\gnu\\arm\\5.4.
  99              		.file 3 "c:\\program files (x86)\\cypress\\psoc creator\\4.4\\psoc creator\\import\\gnu\\arm\\5.4.
 100              		.file 4 "Generated_Source\\PSoC6\\pdl\\drivers/peripheral/device/cy_device.h"
ARM GAS  C:\Users\rolf\AppData\Local\Temp\cclwtvUu.s 			page 12


 101              		.file 5 "Generated_Source\\PSoC6\\pdl\\middleware\\ble\\cy_ble_stack.h"
 102              		.file 6 "Generated_Source\\PSoC6\\pdl\\middleware\\ble\\cy_ble_stack_host_main.h"
 103              		.file 7 "Generated_Source\\PSoC6\\pdl\\middleware\\ble\\cy_ble_stack_gatt.h"
 104              		.file 8 "Generated_Source\\PSoC6\\pdl\\middleware\\ble\\cy_ble_gap.h"
 105              		.file 9 "Generated_Source\\PSoC6\\pdl\\middleware\\ble\\cy_ble_custom.h"
 106              		.file 10 "Generated_Source\\PSoC6\\pdl\\middleware\\ble\\cy_ble_dis.h"
 107              		.file 11 "Generated_Source\\PSoC6\\pdl\\middleware\\ble\\cy_ble_event_handler.h"
 108              		.file 12 "Generated_Source\\PSoC6\\pdl\\cmsis/include/core_cm4.h"